; Function Attrs: mustprogress uwtable
define noundef zeroext i1 @_ZN3re26Regexp10ParseState11DoLeftParenEN4absl7debian211string_viewE(ptr nocapture noundef nonnull align 8 dereferenceable(48) %this, ptr %name.coerce0, i64 %name.coerce1) local_unnamed_addr #8 align 2 personality ptr @__gxx_personality_v0 {
entry:
  %ref.tmp.i = alloca %"class.std::allocator", align 1
  %call = tail call noalias noundef nonnull dereferenceable(40) ptr @_Znwm(i64 noundef 40) #28
  %0 = load i32, ptr %this, align 8
  invoke void @_ZN3re26RegexpC1ENS_8RegexpOpENS0_10ParseFlagsE(ptr noundef nonnull align 8 dereferenceable(40) %call, i32 noundef 22, i32 noundef %0)
          to label %invoke.cont unwind label %lpad

invoke.cont:                                      ; preds = %entry
  %ncap_ = getelementptr inbounds i8, ptr %this, i64 40
  %1 = load i32, ptr %ncap_, align 8
  %inc = add nsw i32 %1, 1
  store i32 %inc, ptr %ncap_, align 8
  %2 = getelementptr inbounds i8, ptr %call, i64 24
  store i32 %inc, ptr %2, align 8
  %cmp.not = icmp eq ptr %name.coerce0, null
  br i1 %cmp.not, label %if.end, label %if.end.i

if.end.i:                                         ; preds = %invoke.cont
  %call3 = tail call noalias noundef nonnull dereferenceable(32) ptr @_Znwm(i64 noundef 32) #28
  call void @llvm.lifetime.start.p0(i64 1, ptr nonnull %ref.tmp.i)
  call void @_ZNSaIcEC1Ev(ptr noundef nonnull align 1 dereferenceable(1) %ref.tmp.i) #25, !noalias !11
  invoke void @_ZNSt7__cxx1112basic_stringIcSt11char_traitsIcESaIcEEC1EPKcmRKS3_(ptr noundef nonnull align 8 dereferenceable(32) %call3, ptr noundef nonnull %name.coerce0, i64 noundef %name.coerce1, ptr noundef nonnull align 1 dereferenceable(1) %ref.tmp.i)
          to label %invoke.cont5 unwind label %lpad.i

lpad.i:                                           ; preds = %if.end.i
  %3 = landingpad { ptr, i32 }
          cleanup
  call void @_ZNSaIcED1Ev(ptr noundef nonnull align 1 dereferenceable(1) %ref.tmp.i) #25
  call void @_ZdlPv(ptr noundef nonnull %call3) #26
  br label %eh.resume

invoke.cont5:                                     ; preds = %if.end.i
  call void @_ZNSaIcED1Ev(ptr noundef nonnull align 1 dereferenceable(1) %ref.tmp.i) #25
  call void @llvm.lifetime.end.p0(i64 1, ptr nonnull %ref.tmp.i)
  %name_ = getelementptr inbounds i8, ptr %call, i64 32
  store ptr %call3, ptr %name_, align 8
  br label %if.end

lpad:                                             ; preds = %entry
  %4 = landingpad { ptr, i32 }
          cleanup
  tail call void @_ZdlPv(ptr noundef nonnull %call) #26
  br label %eh.resume

if.end:                                           ; preds = %invoke.cont5, %invoke.cont
  %call6 = call noundef zeroext i1 @_ZN3re26Regexp10ParseState10PushRegexpEPS0_(ptr noundef nonnull align 8 dereferenceable(48) %this, ptr noundef nonnull %call)
  ret i1 true

eh.resume:                                        ; preds = %lpad.i, %lpad
  %.pn = phi { ptr, i32 } [ %3, %lpad.i ], [ %4, %lpad ]
  resume { ptr, i32 } %.pn
}